target datalayout = "e-m:e-p270:32:32-p271:32:32-p272:64:64-i64:64-i128:128-f80:128-n8:16:32:64-S128"
target triple = "x86_64-pc-linux-gnu"

%struct.file_entry_t = type { i32, ptr, i8, i8, i32, i64, ptr, %struct.datapagemap, i8, i32, i64, ptr, i32 }
%struct.datapagemap = type { ptr, i32 }
%struct.filemap_t = type { i64, i64, i32, [0 x ptr] }

@__pg_log_level = external global i32, align 4
@.str.4 = private unnamed_addr constant [8 x i8] c"%s (%s)\00", align 1
@stdout = external global ptr, align 8
@.str.7 = private unnamed_addr constant [5 x i8] c"NONE\00", align 1
@.str.8 = private unnamed_addr constant [5 x i8] c"COPY\00", align 1
@.str.9 = private unnamed_addr constant [9 x i8] c"TRUNCATE\00", align 1
@.str.10 = private unnamed_addr constant [10 x i8] c"COPY_TAIL\00", align 1
@.str.11 = private unnamed_addr constant [7 x i8] c"CREATE\00", align 1
@.str.12 = private unnamed_addr constant [7 x i8] c"REMOVE\00", align 1
@.str.13 = private unnamed_addr constant [8 x i8] c"unknown\00", align 1

; Function Attrs: nounwind uwtable
define internal ptr @action_to_str(i32 noundef %0) #0 {
  %2 = alloca ptr, align 8
  %3 = alloca i32, align 4
  store i32 %0, ptr %3, align 4
  %4 = load i32, ptr %3, align 4
  switch i32 %4, label %11 [
    i32 4, label %5
    i32 2, label %6
    i32 5, label %7
    i32 3, label %8
    i32 1, label %9
    i32 6, label %10
  ]

5:                                                ; preds = %1
  store ptr @.str.7, ptr %2, align 8
  br label %12

6:                                                ; preds = %1
  store ptr @.str.8, ptr %2, align 8
  br label %12

7:                                                ; preds = %1
  store ptr @.str.9, ptr %2, align 8
  br label %12

8:                                                ; preds = %1
  store ptr @.str.10, ptr %2, align 8
  br label %12

9:                                                ; preds = %1
  store ptr @.str.11, ptr %2, align 8
  br label %12

10:                                               ; preds = %1
  store ptr @.str.12, ptr %2, align 8
  br label %12

11:                                               ; preds = %1
  store ptr @.str.13, ptr %2, align 8
  br label %12

12:                                               ; preds = %11, %10, %9, %8, %7, %6, %5
  %13 = load ptr, ptr %2, align 8
  ret ptr %13
}

; Function Attrs: nounwind uwtable
define dso_local void @print_filemap(ptr noundef %0) #0 {
  %2 = alloca ptr, align 8
  %3 = alloca ptr, align 8
  %4 = alloca i32, align 4
  store ptr %0, ptr %2, align 8
  call void @llvm.lifetime.start.p0(i64 8, ptr %3) #11
  call void @llvm.lifetime.start.p0(i64 4, ptr %4) #11
  store i32 0, ptr %4, align 4
  br label %5

5:                                                ; preds = %59, %1
  %6 = load i32, ptr %4, align 4
  %7 = load ptr, ptr %2, align 8
  %8 = getelementptr inbounds nuw %struct.filemap_t, ptr %7, i32 0, i32 2
  %9 = load i32, ptr %8, align 8
  %10 = icmp slt i32 %6, %9
  br i1 %10, label %11, label %62

11:                                               ; preds = %5
  %12 = load ptr, ptr %2, align 8
  %13 = getelementptr inbounds nuw %struct.filemap_t, ptr %12, i32 0, i32 3
  %14 = load i32, ptr %4, align 4
  %15 = sext i32 %14 to i64
  %16 = getelementptr inbounds [0 x ptr], ptr %13, i64 0, i64 %15
  %17 = load ptr, ptr %16, align 8
  store ptr %17, ptr %3, align 8
  %18 = load ptr, ptr %3, align 8
  %19 = getelementptr inbounds nuw %struct.file_entry_t, ptr %18, i32 0, i32 12
  %20 = load i32, ptr %19, align 8
  %21 = icmp ne i32 %20, 4
  br i1 %21, label %28, label %22

22:                                               ; preds = %11
  %23 = load ptr, ptr %3, align 8
  %24 = getelementptr inbounds nuw %struct.file_entry_t, ptr %23, i32 0, i32 7
  %25 = getelementptr inbounds nuw %struct.datapagemap, ptr %24, i32 0, i32 1
  %26 = load i32, ptr %25, align 8
  %27 = icmp sgt i32 %26, 0
  br i1 %27, label %28, label %58

28:                                               ; preds = %22, %11
  br label %29

29:                                               ; preds = %28
  %30 = load i32, ptr @__pg_log_level, align 4
  %31 = icmp ule i32 %30, 1
  %32 = zext i1 %31 to i32
  %33 = icmp ne i32 %32, 0
  %34 = zext i1 %33 to i32
  %35 = sext i32 %34 to i64
  %36 = call i64 @llvm.expect.i64(i64 %35, i64 0)
  %37 = icmp ne i64 %36, 0
  br i1 %37, label %38, label %46

38:                                               ; preds = %29
  %39 = load ptr, ptr %3, align 8
  %40 = getelementptr inbounds nuw %struct.file_entry_t, ptr %39, i32 0, i32 1
  %41 = load ptr, ptr %40, align 8
  %42 = load ptr, ptr %3, align 8
  %43 = getelementptr inbounds nuw %struct.file_entry_t, ptr %42, i32 0, i32 12
  %44 = load i32, ptr %43, align 8
  %45 = call ptr @action_to_str(i32 noundef %44)
  call void (i32, i32, ptr, ...) @pg_log_generic(i32 noundef 1, i32 noundef 0, ptr noundef @.str.4, ptr noundef %41, ptr noundef %45)
  br label %46

46:                                               ; preds = %38, %29
  br label %47

47:                                               ; preds = %46
  br label %48

48:                                               ; preds = %47
  %49 = load ptr, ptr %3, align 8
  %50 = getelementptr inbounds nuw %struct.file_entry_t, ptr %49, i32 0, i32 7
  %51 = getelementptr inbounds nuw %struct.datapagemap, ptr %50, i32 0, i32 1
  %52 = load i32, ptr %51, align 8
  %53 = icmp sgt i32 %52, 0
  br i1 %53, label %54, label %57

54:                                               ; preds = %48
  %55 = load ptr, ptr %3, align 8
  %56 = getelementptr inbounds nuw %struct.file_entry_t, ptr %55, i32 0, i32 7
  call void @datapagemap_print(ptr noundef %56)
  br label %57

57:                                               ; preds = %54, %48
  br label %58

58:                                               ; preds = %57, %22
  br label %59

59:                                               ; preds = %58
  %60 = load i32, ptr %4, align 4
  %61 = add i32 %60, 1
  store i32 %61, ptr %4, align 4
  br label %5, !llvm.loop !9

62:                                               ; preds = %5
  %63 = load ptr, ptr @stdout, align 8
  %64 = call i32 @fflush(ptr noundef %63)
  call void @llvm.lifetime.end.p0(i64 4, ptr %4) #11
  call void @llvm.lifetime.end.p0(i64 8, ptr %3) #11
  ret void
}