; Function Attrs: nounwind uwtable
define dso_local void @print_filemap(ptr noundef readonly captures(none) %0) local_unnamed_addr #0 {
  %2 = getelementptr inbounds nuw i8, ptr %0, i64 16
  %3 = load i32, ptr %2, align 8
  %4 = icmp sgt i32 %3, 0
  br i1 %4, label %.lr.ph, label %._crit_edge

.lr.ph:                                           ; preds = %1
  %5 = getelementptr inbounds nuw i8, ptr %0, i64 24
  br label %6

6:                                                ; preds = %.lr.ph, %29
  %indvars.iv = phi i64 [ 0, %.lr.ph ], [ %indvars.iv.next, %29 ]
  %7 = getelementptr inbounds nuw [0 x ptr], ptr %5, i64 0, i64 %indvars.iv
  %8 = load ptr, ptr %7, align 8
  %9 = getelementptr inbounds nuw i8, ptr %8, i64 80
  %10 = load i32, ptr %9, align 8
  %.not = icmp eq i32 %10, 4
  br i1 %.not, label %11, label %15

11:                                               ; preds = %6
  %12 = getelementptr inbounds nuw i8, ptr %8, i64 48
  %13 = load i32, ptr %12, align 8
  %14 = icmp sgt i32 %13, 0
  br i1 %14, label %15, label %29

15:                                               ; preds = %6, %11
  %16 = load i32, ptr @__pg_log_level, align 4
  %17 = icmp ult i32 %16, 2
  br i1 %17, label %18, label %23, !prof !5

18:                                               ; preds = %15
  %19 = getelementptr inbounds nuw i8, ptr %8, i64 8
  %20 = load ptr, ptr %19, align 8
  %switch.tableidx = add i32 %10, -1
  %21 = icmp ult i32 %switch.tableidx, 6
  br i1 %21, label %switch.lookup, label %action_to_str.exit

switch.lookup:                                    ; preds = %18
  %22 = zext nneg i32 %switch.tableidx to i64
  %switch.gep = getelementptr inbounds nuw [6 x ptr], ptr @switch.table.print_filemap, i64 0, i64 %22
  %switch.load = load ptr, ptr %switch.gep, align 8
  br label %action_to_str.exit

action_to_str.exit:                               ; preds = %18, %switch.lookup
  %.0.i = phi ptr [ %switch.load, %switch.lookup ], [ @.str.13, %18 ]
  tail call void (i32, i32, ptr, ...) @pg_log_generic(i32 noundef 1, i32 noundef 0, ptr noundef nonnull @.str.4, ptr noundef %20, ptr noundef nonnull %.0.i) #13
  br label %23

23:                                               ; preds = %action_to_str.exit, %15
  %24 = getelementptr inbounds nuw i8, ptr %8, i64 48
  %25 = load i32, ptr %24, align 8
  %26 = icmp sgt i32 %25, 0
  br i1 %26, label %27, label %29

27:                                               ; preds = %23
  %28 = getelementptr inbounds nuw i8, ptr %8, i64 40
  tail call void @datapagemap_print(ptr noundef nonnull %28) #13
  br label %29

29:                                               ; preds = %11, %27, %23
  %indvars.iv.next = add nuw nsw i64 %indvars.iv, 1
  %30 = load i32, ptr %2, align 8
  %31 = sext i32 %30 to i64
  %32 = icmp slt i64 %indvars.iv.next, %31
  br i1 %32, label %6, label %._crit_edge, !llvm.loop !13

._crit_edge:                                      ; preds = %29, %1
  %33 = load ptr, ptr @stdout, align 8
  %34 = tail call i32 @fflush(ptr noundef %33)
  ret void
}